; ModuleID = 'source-C-CXX/15/682.c'
source_filename = "source-C-CXX/15/682.c"
target datalayout = "e-m:e-p270:32:32-p271:32:32-p272:64:64-i64:64-f80:128-n8:16:32:64-S128"
target triple = "x86_64-pc-linux-gnu"

@.str = private unnamed_addr constant [3 x i8] c"%d\00", align 1
@.str.1 = private unnamed_addr constant [3 x i8] c"01\00", align 1
@.str.2 = private unnamed_addr constant [4 x i8] c"001\00", align 1
@.str.3 = private unnamed_addr constant [5 x i8] c"0001\00", align 1
@.str.4 = private unnamed_addr constant [6 x i8] c"00001\00", align 1
@.str.5 = private unnamed_addr constant [5 x i8] c"%d%d\00", align 1
@.str.6 = private unnamed_addr constant [7 x i8] c"%d%d%d\00", align 1
@.str.7 = private unnamed_addr constant [9 x i8] c"%d%d%d%d\00", align 1

; Function Attrs: nofree nounwind sspstrong uwtable
define dso_local i32 @main() local_unnamed_addr #0 {
  %1 = alloca i32, align 4
  %2 = bitcast i32* %1 to i8*
  call void @llvm.lifetime.start.p0i8(i64 4, i8* nonnull %2) #3
  %3 = call i32 (i8*, ...) @__isoc99_scanf(i8* getelementptr inbounds ([3 x i8], [3 x i8]* @.str, i64 0, i64 0), i32* nonnull %1)
  %4 = load i32, i32* %1, align 4, !tbaa !5
  %5 = srem i32 %4, 10
  %6 = srem i32 %4, 100
  %7 = sub nsw i32 %6, %5
  %8 = trunc i32 %7 to i8
  %9 = sdiv i8 %8, 10
  %10 = sext i8 %9 to i32
  %11 = srem i32 %4, 1000
  %12 = sub nsw i32 %11, %6
  %13 = trunc i32 %12 to i16
  %14 = sdiv i16 %13, 100
  %15 = sext i16 %14 to i32
  %16 = sdiv i32 %4, 1000
  %17 = icmp slt i32 %4, 10
  br i1 %17, label %18, label %20

18:                                               ; preds = %0
  %19 = call i32 (i8*, ...) @printf(i8* nonnull dereferenceable(1) getelementptr inbounds ([3 x i8], [3 x i8]* @.str, i64 0, i64 0), i32 %4)
  br label %44

20:                                               ; preds = %0
  switch i32 %4, label %29 [
    i32 10, label %21
    i32 100, label %23
    i32 1000, label %25
    i32 10000, label %27
  ]

21:                                               ; preds = %20
  %22 = call i32 (i8*, ...) @printf(i8* nonnull dereferenceable(1) getelementptr inbounds ([3 x i8], [3 x i8]* @.str.1, i64 0, i64 0))
  br label %44

23:                                               ; preds = %20
  %24 = call i32 (i8*, ...) @printf(i8* nonnull dereferenceable(1) getelementptr inbounds ([4 x i8], [4 x i8]* @.str.2, i64 0, i64 0))
  br label %44

25:                                               ; preds = %20
  %26 = call i32 (i8*, ...) @printf(i8* nonnull dereferenceable(1) getelementptr inbounds ([5 x i8], [5 x i8]* @.str.3, i64 0, i64 0))
  br label %44

27:                                               ; preds = %20
  %28 = call i32 (i8*, ...) @printf(i8* nonnull dereferenceable(1) getelementptr inbounds ([6 x i8], [6 x i8]* @.str.4, i64 0, i64 0))
  br label %44

29:                                               ; preds = %20
  %30 = icmp slt i32 %4, 100
  br i1 %30, label %31, label %33

31:                                               ; preds = %29
  %32 = call i32 (i8*, ...) @printf(i8* nonnull dereferenceable(1) getelementptr inbounds ([5 x i8], [5 x i8]* @.str.5, i64 0, i64 0), i32 %5, i32 %10)
  br label %44

33:                                               ; preds = %29
  %34 = icmp ne i32 %4, 100
  %35 = icmp slt i32 %4, 1000
  %36 = and i1 %34, %35
  br i1 %36, label %37, label %39

37:                                               ; preds = %33
  %38 = call i32 (i8*, ...) @printf(i8* nonnull dereferenceable(1) getelementptr inbounds ([7 x i8], [7 x i8]* @.str.6, i64 0, i64 0), i32 %5, i32 %10, i32 %15)
  br label %44

39:                                               ; preds = %33
  %40 = add nsw i32 %4, -1001
  %41 = icmp ult i32 %40, 8999
  br i1 %41, label %42, label %44

42:                                               ; preds = %39
  %43 = call i32 (i8*, ...) @printf(i8* nonnull dereferenceable(1) getelementptr inbounds ([9 x i8], [9 x i8]* @.str.7, i64 0, i64 0), i32 %5, i32 %10, i32 %15, i32 %16)
  br label %44

44:                                               ; preds = %21, %25, %31, %39, %42, %37, %27, %23, %18
  call void @llvm.lifetime.end.p0i8(i64 4, i8* nonnull %2) #3
  ret i32 0
}

; Function Attrs: argmemonly mustprogress nofree nosync nounwind willreturn
declare void @llvm.lifetime.start.p0i8(i64 immarg, i8* nocapture) #1

; Function Attrs: nofree nounwind
declare noundef i32 @__isoc99_scanf(i8* nocapture noundef readonly, ...) local_unnamed_addr #2

; Function Attrs: nofree nounwind
declare noundef i32 @printf(i8* nocapture noundef readonly, ...) local_unnamed_addr #2

; Function Attrs: argmemonly mustprogress nofree nosync nounwind willreturn
declare void @llvm.lifetime.end.p0i8(i64 immarg, i8* nocapture) #1


!llvm.module.flags = !{!0, !1, !2, !3}
!llvm.ident = !{!4}

!0 = !{i32 1, !"wchar_size", i32 4}
!1 = !{i32 7, !"PIC Level", i32 2}
!2 = !{i32 7, !"PIE Level", i32 2}
!3 = !{i32 7, !"uwtable", i32 1}
!4 = !{!"clang version 13.0.0"}
!5 = !{!6, !6, i64 0}
!6 = !{!"int", !7, i64 0}
!7 = !{!"omnipotent char", !8, i64 0}
!8 = !{!"Simple C/C++ TBAA"}
